	.file	"prog1.c"
	.text
	.globl	main
	.type	main, @function
main:
.LFB0:
	.cfi_startproc
	pushq	%rbp
	.cfi_def_cfa_offset 16
	.cfi_offset 6, -16
	movq	%rsp, %rbp
	.cfi_def_cfa_register 6
	subq	$64, %rsp
	movq	%fs:40, %rax
	movq	%rax, -8(%rbp)
	xorl	%eax, %eax
	movl	$3, -64(%rbp)
	movl	$90, -60(%rbp)
	movl	$-12323121, -56(%rbp)
	movl	$45, -52(%rbp)
	movl	$-21, -48(%rbp)
	movq	$0, -32(%rbp)
	movq	$0, -24(%rbp)
	movl	$0, -16(%rbp)
	movl	$123, -32(%rbp)
	leaq	-64(%rbp), %rax
	movl	$5, %esi
	movq	%rax, %rdi
	call	print_int_array@PLT
	leaq	-32(%rbp), %rax
	movl	$5, %esi
	movq	%rax, %rdi
	call	print_int_array@PLT
	movl	$0, %eax
	movq	-8(%rbp), %rdx
	xorq	%fs:40, %rdx
	je	.L3
	call	__stack_chk_fail@PLT
.L3:
	leave
	.cfi_def_cfa 7, 8
	ret
	.cfi_endproc
.LFE0:
	.size	main, .-main
	.globl	sum
	.type	sum, @function
sum:
.LFB1:
	.cfi_startproc
	pushq	%rbp
	.cfi_def_cfa_offset 16
	.cfi_offset 6, -16
	movq	%rsp, %rbp
	.cfi_def_cfa_register 6
	movq	%rdi, -24(%rbp)
	movl	%esi, -28(%rbp)
	movl	$0, -8(%rbp)
	movl	$0, -4(%rbp)
	movl	$0, -8(%rbp)
	jmp	.L5
.L6:
	movl	-8(%rbp), %eax
	cltq
	leaq	0(,%rax,4), %rdx
	movq	-24(%rbp), %rax
	addq	%rdx, %rax
	movl	(%rax), %eax
	addl	%eax, -4(%rbp)
	addl	$1, -8(%rbp)
.L5:
	movl	-8(%rbp), %eax
	cmpl	-28(%rbp), %eax
	jl	.L6
	movl	-4(%rbp), %eax
	popq	%rbp
	.cfi_def_cfa 7, 8
	ret
	.cfi_endproc
.LFE1:
	.size	sum, .-sum
	.ident	"GCC: (Ubuntu 7.4.0-1ubuntu1~18.04.1) 7.4.0"
	.section	.note.GNU-stack,"",@progbits
